((dp1
I0
((lp2
(I1
I2
I1
(dp3
I3
I1
stp4
a(I1
I2
I2
(dp5
I3
I2
stp6
a(I1
I2
I3
(dp7
I3
I3
stp8
a(I1
I3
I1
(dp9
I18
I2
sI19
I2
sI20
I2
sI21
I2
sI22
I2
sI23
I2
sI24
I2
stp10
aI0
tp11
sI1
((lp12
(I1
I2
I2
(dp13
I2
I2
sI3
I2
sI4
I2
sI5
I2
sI6
I2
sI7
I2
sI8
I2
stp14
a(I1
I2
I1
(dp15
I2
I1
sI3
I1
stp16
aI0
tp17
sI2
((lp18
(I1
I2
I3
(dp19
I1
I3
sI2
I3
sI3
I3
sI4
I3
sI5
I3
sI6
I3
sI7
I3
sI8
I3
stp20
a(I1
I3
I3
(dp21
I2
I3
sI3
I3
sI4
I3
sI5
I3
sI6
I3
sI7
I3
sI8
I3
sI9
I3
sI10
I3
sI11
I3
sI12
I3
sI13
I3
sI14
I3
sI15
I3
sI16
I3
sI17
I3
sI18
I3
sI19
I3
sI20
I3
sI21
I3
sI22
I3
sI23
I3
sI24
I3
stp22
a(I1
I2
I2
(dp23
I2
I2
sI3
I2
stp24
a(I1
I3
I2
(dp25
I13
I2
sI14
I2
sI15
I2
sI16
I2
sI17
I2
sI18
I2
sI19
I3
sI20
I3
sI21
I3
sI22
I3
sI23
I3
sI24
I3
stp26
a(I1
I2
I1
(dp27
I2
I2
stp28
aI0
tp29
sI3
((lp30
(I1
I2
I3
(dp31
I3
I3
sI4
I3
stp32
a(I1
I2
I1
(dp33
I3
I1
sI4
I1
sI5
I0
sI6
I0
sI7
I0
sI8
I0
stp34
a(I1
I2
I2
(dp35
I4
I2
sI5
I3
stp36
aI1
tp37
s(dp38
I0
(I0
I0
I0
tp39
sI1
(I255
I255
I255
tp40
sI2
(I0
I255
I0
tp41
sI3
(I255
I0
I0
tp42
s(dp43
(I1
I0
I0
tp44
(S'state_setter'
p45
(I1
ttp46
s(I0
I0
I1
tp47
(g45
(I2
ttp48
st.