((dp1
I0
((lp2
(I1
I2
I1
(dp3
I3
I1
stp4
aI0
tp5
sI1
((lp6
(I1
I2
I1
(dp7
I2
I1
sI3
I1
stp8
aI0
tp9
s(dp10
I0
(I0
I0
I0
tp11
sI1
(I255
I255
I255
tp12
s(dp13
(I1
I0
I0
tp14
(S'state_setter'
p15
(I1
ttp16
s(I0
I0
I1
tp17
(g15
(I0
ttp18
st.